target datalayout = "e-m:e-p270:32:32-p271:32:32-p272:64:64-i64:64-i128:128-f80:128-n8:16:32:64-S128"
target triple = "x86_64-pc-linux-gnu"

%struct.mbedtls_cipher_context_t = type { ptr, i32, i32, ptr, ptr, [16 x i8], i64, [16 x i8], i64, ptr, ptr }

; Function Attrs: nounwind uwtable
define hidden i32 @mbedtls_cipher_reset(ptr noundef %0) #0 {
  %2 = alloca i32, align 4
  %3 = alloca ptr, align 8
  store ptr %0, ptr %3, align 8, !tbaa !29
  %4 = load ptr, ptr %3, align 8, !tbaa !29
  %5 = getelementptr inbounds nuw %struct.mbedtls_cipher_context_t, ptr %4, i32 0, i32 0
  %6 = load ptr, ptr %5, align 8, !tbaa !36
  %7 = icmp eq ptr %6, null
  br i1 %7, label %8, label %9

8:                                                ; preds = %1
  store i32 -24832, ptr %2, align 4
  br label %12

9:                                                ; preds = %1
  %10 = load ptr, ptr %3, align 8, !tbaa !29
  %11 = getelementptr inbounds nuw %struct.mbedtls_cipher_context_t, ptr %10, i32 0, i32 6
  store i64 0, ptr %11, align 8, !tbaa !45
  store i32 0, ptr %2, align 4
  br label %12

12:                                               ; preds = %9, %8
  %13 = load i32, ptr %2, align 4
  ret i32 %13
}

; Function Attrs: nounwind uwtable
define hidden i32 @mbedtls_cipher_crypt(ptr noundef %0, ptr noundef %1, i64 noundef %2, ptr noundef %3, i64 noundef %4, ptr noundef %5, ptr noundef %6) #0 {
  %8 = alloca i32, align 4
  %9 = alloca ptr, align 8
  %10 = alloca ptr, align 8
  %11 = alloca i64, align 8
  %12 = alloca ptr, align 8
  %13 = alloca i64, align 8
  %14 = alloca ptr, align 8
  %15 = alloca ptr, align 8
  %16 = alloca i32, align 4
  %17 = alloca i64, align 8
  %18 = alloca i32, align 4
  store ptr %0, ptr %9, align 8, !tbaa !29
  store ptr %1, ptr %10, align 8, !tbaa !18
  store i64 %2, ptr %11, align 8, !tbaa !43
  store ptr %3, ptr %12, align 8, !tbaa !18
  store i64 %4, ptr %13, align 8, !tbaa !43
  store ptr %5, ptr %14, align 8, !tbaa !18
  store ptr %6, ptr %15, align 8, !tbaa !46
  call void @llvm.lifetime.start.p0(i64 4, ptr %16) #7
  store i32 -110, ptr %16, align 4, !tbaa !3
  call void @llvm.lifetime.start.p0(i64 8, ptr %17) #7
  %19 = load ptr, ptr %9, align 8, !tbaa !29
  %20 = load ptr, ptr %10, align 8, !tbaa !18
  %21 = load i64, ptr %11, align 8, !tbaa !43
  %22 = call i32 @mbedtls_cipher_set_iv(ptr noundef %19, ptr noundef %20, i64 noundef %21)
  store i32 %22, ptr %16, align 4, !tbaa !3
  %23 = icmp ne i32 %22, 0
  br i1 %23, label %24, label %26

24:                                               ; preds = %7
  %25 = load i32, ptr %16, align 4, !tbaa !3
  store i32 %25, ptr %8, align 4
  store i32 1, ptr %18, align 4
  br label %57

26:                                               ; preds = %7
  %27 = load ptr, ptr %9, align 8, !tbaa !29
  %28 = call i32 @mbedtls_cipher_reset(ptr noundef %27)
  store i32 %28, ptr %16, align 4, !tbaa !3
  %29 = icmp ne i32 %28, 0
  br i1 %29, label %30, label %32

30:                                               ; preds = %26
  %31 = load i32, ptr %16, align 4, !tbaa !3
  store i32 %31, ptr %8, align 4
  store i32 1, ptr %18, align 4
  br label %57

32:                                               ; preds = %26
  %33 = load ptr, ptr %9, align 8, !tbaa !29
  %34 = load ptr, ptr %12, align 8, !tbaa !18
  %35 = load i64, ptr %13, align 8, !tbaa !43
  %36 = load ptr, ptr %14, align 8, !tbaa !18
  %37 = load ptr, ptr %15, align 8, !tbaa !46
  %38 = call i32 @mbedtls_cipher_update(ptr noundef %33, ptr noundef %34, i64 noundef %35, ptr noundef %36, ptr noundef %37)
  store i32 %38, ptr %16, align 4, !tbaa !3
  %39 = icmp ne i32 %38, 0
  br i1 %39, label %40, label %42

40:                                               ; preds = %32
  %41 = load i32, ptr %16, align 4, !tbaa !3
  store i32 %41, ptr %8, align 4
  store i32 1, ptr %18, align 4
  br label %57

42:                                               ; preds = %32
  %43 = load ptr, ptr %9, align 8, !tbaa !29
  %44 = load ptr, ptr %14, align 8, !tbaa !18
  %45 = load ptr, ptr %15, align 8, !tbaa !46
  %46 = load i64, ptr %45, align 8, !tbaa !43
  %47 = getelementptr inbounds nuw i8, ptr %44, i64 %46
  %48 = call i32 @mbedtls_cipher_finish(ptr noundef %43, ptr noundef %47, ptr noundef %17)
  store i32 %48, ptr %16, align 4, !tbaa !3
  %49 = icmp ne i32 %48, 0
  br i1 %49, label %50, label %52

50:                                               ; preds = %42
  %51 = load i32, ptr %16, align 4, !tbaa !3
  store i32 %51, ptr %8, align 4
  store i32 1, ptr %18, align 4
  br label %57

52:                                               ; preds = %42
  %53 = load i64, ptr %17, align 8, !tbaa !43
  %54 = load ptr, ptr %15, align 8, !tbaa !46
  %55 = load i64, ptr %54, align 8, !tbaa !43
  %56 = add i64 %55, %53
  store i64 %56, ptr %54, align 8, !tbaa !43
  store i32 0, ptr %8, align 4
  store i32 1, ptr %18, align 4
  br label %57

57:                                               ; preds = %52, %50, %40, %30, %24
  call void @llvm.lifetime.end.p0(i64 8, ptr %17) #7
  call void @llvm.lifetime.end.p0(i64 4, ptr %16) #7
  %58 = load i32, ptr %8, align 4
  ret i32 %58
}