; Function Attrs: nounwind uwtable
define hidden i32 @mbedtls_cipher_crypt(ptr noundef %0, ptr noundef %1, i64 noundef %2, ptr noundef %3, i64 noundef %4, ptr noundef %5, ptr noundef %6) local_unnamed_addr #8 {
  %8 = alloca i64, align 8
  call void @llvm.lifetime.start.p0(i64 8, ptr nonnull %8) #15
  %9 = tail call i32 @mbedtls_cipher_set_iv(ptr noundef %0, ptr noundef %1, i64 noundef %2)
  %.not = icmp eq i32 %9, 0
  br i1 %.not, label %10, label %mbedtls_cipher_reset.exit

10:                                               ; preds = %7
  %11 = load ptr, ptr %0, align 8, !tbaa !29
  %12 = icmp eq ptr %11, null
  br i1 %12, label %mbedtls_cipher_reset.exit, label %13

13:                                               ; preds = %10
  %14 = getelementptr inbounds nuw i8, ptr %0, i64 48
  store i64 0, ptr %14, align 8, !tbaa !36
  %15 = tail call i32 @mbedtls_cipher_update(ptr noundef nonnull %0, ptr noundef %3, i64 noundef %4, ptr noundef %5, ptr noundef %6)
  %.not22 = icmp eq i32 %15, 0
  br i1 %.not22, label %16, label %mbedtls_cipher_reset.exit

16:                                               ; preds = %13
  %17 = load i64, ptr %6, align 8, !tbaa !37
  %18 = getelementptr inbounds nuw i8, ptr %5, i64 %17
  %19 = call i32 @mbedtls_cipher_finish(ptr noundef nonnull %0, ptr noundef %18, ptr noundef nonnull %8)
  %.not23 = icmp eq i32 %19, 0
  br i1 %.not23, label %20, label %mbedtls_cipher_reset.exit

20:                                               ; preds = %16
  %21 = load i64, ptr %8, align 8, !tbaa !37
  %22 = load i64, ptr %6, align 8, !tbaa !37
  %23 = add i64 %22, %21
  store i64 %23, ptr %6, align 8, !tbaa !37
  br label %mbedtls_cipher_reset.exit

mbedtls_cipher_reset.exit:                        ; preds = %10, %16, %13, %7, %20
  %.0 = phi i32 [ 0, %20 ], [ %9, %7 ], [ %15, %13 ], [ %19, %16 ], [ -24832, %10 ]
  call void @llvm.lifetime.end.p0(i64 8, ptr nonnull %8) #15
  ret i32 %.0
}